; Function Attrs: nounwind uwtable
define hidden void @nghttp2_hd_table_get(ptr dead_on_unwind noalias writable writeonly sret(%struct.nghttp2_hd_nv) align 8 captures(none) %0, ptr noundef readonly captures(none) %1, i64 noundef %2) local_unnamed_addr #0 {
  %4 = getelementptr inbounds nuw i8, ptr %1, i64 24
  %5 = load i64, ptr %4, align 8, !tbaa !71
  %6 = add i64 %5, 61
  %7 = icmp ult i64 %2, %6
  br i1 %7, label %9, label %8

8:                                                ; preds = %3
  tail call void @__assert_fail(ptr noundef nonnull @.str, ptr noundef nonnull @.str.1, i32 noundef 1314, ptr noundef nonnull @__PRETTY_FUNCTION__.nghttp2_hd_table_get) #13
  unreachable

9:                                                ; preds = %3
  %10 = icmp ugt i64 %2, 60
  br i1 %10, label %11, label %24

11:                                               ; preds = %9
  %12 = add i64 %2, -61
  %13 = icmp ult i64 %12, %5
  br i1 %13, label %hd_ringbuf_get.exit, label %14

14:                                               ; preds = %11
  tail call void @__assert_fail(ptr noundef nonnull @.str.4, ptr noundef nonnull @.str.1, i32 noundef 622, ptr noundef nonnull @__PRETTY_FUNCTION__.hd_ringbuf_get) #13
  unreachable

hd_ringbuf_get.exit:                              ; preds = %11
  %15 = load ptr, ptr %1, align 8, !tbaa !40
  %16 = getelementptr inbounds nuw i8, ptr %1, i64 16
  %17 = load i64, ptr %16, align 8, !tbaa !63
  %18 = add i64 %17, %12
  %19 = getelementptr inbounds nuw i8, ptr %1, i64 8
  %20 = load i64, ptr %19, align 8, !tbaa !41
  %21 = and i64 %18, %20
  %22 = getelementptr inbounds nuw ptr, ptr %15, i64 %21
  %23 = load ptr, ptr %22, align 8, !tbaa !64
  tail call void @llvm.memcpy.p0.p0.i64(ptr noundef nonnull align 8 dereferenceable(24) %0, ptr noundef nonnull align 8 dereferenceable(24) %23, i64 24, i1 false), !tbaa.struct !3
  br label %32

24:                                               ; preds = %9
  %25 = getelementptr inbounds nuw [61 x %struct.nghttp2_hd_static_entry], ptr @static_table, i64 0, i64 %2
  store ptr %25, ptr %0, align 8, !tbaa !12
  %26 = getelementptr inbounds nuw i8, ptr %0, i64 8
  %27 = getelementptr inbounds nuw i8, ptr %25, i64 40
  store ptr %27, ptr %26, align 8, !tbaa !24
  %28 = getelementptr inbounds nuw i8, ptr %0, i64 16
  %29 = getelementptr inbounds nuw i8, ptr %25, i64 120
  %30 = load i32, ptr %29, align 8, !tbaa !75
  store i32 %30, ptr %28, align 8, !tbaa !77
  %31 = getelementptr inbounds nuw i8, ptr %0, i64 20
  store i32 0, ptr %31, align 4
  br label %32

32:                                               ; preds = %24, %hd_ringbuf_get.exit
  ret void
}